---
triple:          'arm64-apple-darwin'
binary-path:     '/Users/anup/Desktop/oops_project/output/pay'
relocations:
  - { offsetInCU: 0x4A9E, offset: 0x4A9E, size: 0x8, addend: 0x0, symName: __ZNSt3__124__put_character_sequenceB7v160006IcNS_11char_traitsIcEEEERNS_13basic_ostreamIT_T0_EES7_PKS4_m, symObjAddr: 0x42AC, symBinAddr: 0x100005230, symSize: 0x1F4 }
  - { offsetInCU: 0x68C9, offset: 0x68C9, size: 0x8, addend: 0x0, symName: __ZNSt3__1lsB7v160006INS_11char_traitsIcEEEERNS_13basic_ostreamIcT_EES6_PKc, symObjAddr: 0x564, symBinAddr: 0x1000014E8, symSize: 0x48 }
  - { offsetInCU: 0x690F, offset: 0x690F, size: 0x8, addend: 0x0, symName: __ZNSt3__14endlB7v160006IcNS_11char_traitsIcEEEERNS_13basic_ostreamIT_T0_EES7_, symObjAddr: 0x5D8, symBinAddr: 0x10000155C, symSize: 0x58 }
  - { offsetInCU: 0x694F, offset: 0x694F, size: 0x8, addend: 0x0, symName: __ZNSt3__1rsB7v160006IcNS_11char_traitsIcEENS_9allocatorIcEEEERNS_13basic_istreamIT_T0_EES9_RNS_12basic_stringIS6_S7_T1_EE, symObjAddr: 0x630, symBinAddr: 0x1000015B4, symSize: 0x314 }
  - { offsetInCU: 0x6A1C, offset: 0x6A1C, size: 0x8, addend: 0x0, symName: __ZNSt3__119__debug_db_insert_cB7v160006INS_6vectorIP8EmployeeNS_9allocatorIS3_EEEEEEvPT_, symObjAddr: 0x15FC, symBinAddr: 0x100002580, symSize: 0x10 }
  - { offsetInCU: 0x7800, offset: 0x7800, size: 0x8, addend: 0x0, symName: __ZNSt3__112__to_addressB7v160006IKcEEPT_S3_, symObjAddr: 0x1C14, symBinAddr: 0x100002B98, symSize: 0x14 }
  - { offsetInCU: 0x7835, offset: 0x7835, size: 0x8, addend: 0x0, symName: __ZNSt3__130__libcpp_is_constant_evaluatedB7v160006Ev, symObjAddr: 0x1D40, symBinAddr: 0x100002CC4, symSize: 0xC }
  - { offsetInCU: 0x7885, offset: 0x7885, size: 0x8, addend: 0x0, symName: __ZNSt3__112__to_addressB7v160006IP8EmployeeEEPT_S4_, symObjAddr: 0x2138, symBinAddr: 0x1000030BC, symSize: 0x14 }
  - { offsetInCU: 0x78BA, offset: 0x78BA, size: 0x8, addend: 0x0, symName: __ZNSt3__13maxB7v160006ImEERKT_S3_S3_, symObjAddr: 0x2570, symBinAddr: 0x1000034F4, symSize: 0x2C }
  - { offsetInCU: 0x78FD, offset: 0x78FD, size: 0x8, addend: 0x0, symName: __ZNSt3__13minB7v160006ImEERKT_S3_S3_, symObjAddr: 0x259C, symBinAddr: 0x100003520, symSize: 0x2C }
  - { offsetInCU: 0x7B41, offset: 0x7B41, size: 0x8, addend: 0x0, symName: __ZNSt3__13minB7v160006ImNS_6__lessImmEEEERKT_S5_S5_T0_, symObjAddr: 0x2628, symBinAddr: 0x1000035AC, symSize: 0x54 }
  - { offsetInCU: 0x7BD6, offset: 0x7BD6, size: 0x8, addend: 0x0, symName: __ZNSt3__120__throw_length_errorB7v160006EPKc, symObjAddr: 0x2704, symBinAddr: 0x100003688, symSize: 0x64 }
  - { offsetInCU: 0x7BFE, offset: 0x7BFE, size: 0x8, addend: 0x0, symName: __ZNSt3__13maxB7v160006ImNS_6__lessImmEEEERKT_S5_S5_T0_, symObjAddr: 0x2848, symBinAddr: 0x1000037CC, symSize: 0x54 }
  - { offsetInCU: 0x7C58, offset: 0x7C58, size: 0x8, addend: 0x0, symName: __ZNSt3__119__allocate_at_leastB7v160006INS_9allocatorIP8EmployeeEEEENS_19__allocation_resultINS_16allocator_traitsIT_E7pointerEEERS7_m, symObjAddr: 0x29AC, symBinAddr: 0x100003930, symSize: 0x40 }
  - { offsetInCU: 0x7C9B, offset: 0x7C9B, size: 0x8, addend: 0x0, symName: __ZNSt3__117__libcpp_allocateB7v160006Emm, symObjAddr: 0x2B5C, symBinAddr: 0x100003AE0, symSize: 0x28 }
  - { offsetInCU: 0x7CD8, offset: 0x7CD8, size: 0x8, addend: 0x0, symName: __ZNSt3__121__libcpp_operator_newB7v160006IJmEEEPvDpT_, symObjAddr: 0x2B84, symBinAddr: 0x100003B08, symSize: 0x24 }
  - { offsetInCU: 0x7D11, offset: 0x7D11, size: 0x8, addend: 0x0, symName: __ZNSt3__142__uninitialized_allocator_move_if_noexceptB7v160006INS_9allocatorIP8EmployeeEENS_16reverse_iteratorIPS3_EES7_S3_vEET1_RT_T0_SB_S8_, symObjAddr: 0x2CC4, symBinAddr: 0x100003C48, symSize: 0xE8 }
  - { offsetInCU: 0x7D8E, offset: 0x7D8E, size: 0x8, addend: 0x0, symName: __ZNSt3__14swapB7v160006IPP8EmployeeEEvRT_S5_, symObjAddr: 0x2DF8, symBinAddr: 0x100003D7C, symSize: 0x3C }
  - { offsetInCU: 0x7DDF, offset: 0x7DDF, size: 0x8, addend: 0x0, symName: __ZNSt3__125__debug_db_invalidate_allB7v160006INS_6vectorIP8EmployeeNS_9allocatorIS3_EEEEEEvPT_, symObjAddr: 0x2EE0, symBinAddr: 0x100003E64, symSize: 0x10 }
  - { offsetInCU: 0x7E10, offset: 0x7E10, size: 0x8, addend: 0x0, symName: __ZNSt3__1neB7v160006IPP8EmployeeS3_EEbRKNS_16reverse_iteratorIT_EERKNS4_IT0_EE, symObjAddr: 0x2F38, symBinAddr: 0x100003EBC, symSize: 0x48 }
  - { offsetInCU: 0x7E81, offset: 0x7E81, size: 0x8, addend: 0x0, symName: __ZNSt3__114__construct_atB7v160006IP8EmployeeJS2_EPS2_EEPT_S5_DpOT0_, symObjAddr: 0x2F80, symBinAddr: 0x100003F04, symSize: 0x2C }
  - { offsetInCU: 0x7EF1, offset: 0x7EF1, size: 0x8, addend: 0x0, symName: __ZNSt3__112__to_addressB7v160006INS_16reverse_iteratorIPP8EmployeeEEvEENS_5decayIDTclsr19__to_address_helperIT_EE6__callclsr3stdE7declvalIRKS7_EEEEE4typeES9_, symObjAddr: 0x2FAC, symBinAddr: 0x100003F30, symSize: 0x24 }
  - { offsetInCU: 0x7F27, offset: 0x7F27, size: 0x8, addend: 0x0, symName: __ZNSt3__14moveB7v160006INS_16reverse_iteratorIPP8EmployeeEES5_EET0_T_S7_S6_, symObjAddr: 0x3018, symBinAddr: 0x100003F9C, symSize: 0x78 }
  - { offsetInCU: 0x7FAA, offset: 0x7FAA, size: 0x8, addend: 0x0, symName: __ZNSt3__16__moveB7v160006INS_17_ClassicAlgPolicyENS_16reverse_iteratorIPP8EmployeeEES6_S6_EENS_4pairIT0_T2_EES8_T1_S9_, symObjAddr: 0x3100, symBinAddr: 0x100004084, symSize: 0x64 }
  - { offsetInCU: 0x8016, offset: 0x8016, size: 0x8, addend: 0x0, symName: __ZNSt3__123__dispatch_copy_or_moveB7v160006INS_17_ClassicAlgPolicyENS_11__move_loopIS1_EENS_14__move_trivialENS_16reverse_iteratorIPP8EmployeeEES9_S9_EENS_4pairIT2_T4_EESB_T3_SC_, symObjAddr: 0x3164, symBinAddr: 0x1000040E8, symSize: 0x7C }
  - { offsetInCU: 0x8094, offset: 0x8094, size: 0x8, addend: 0x0, symName: __ZNSt3__121__unwrap_and_dispatchB7v160006INS_10__overloadINS_11__move_loopINS_17_ClassicAlgPolicyEEENS_14__move_trivialEEENS_16reverse_iteratorIPP8EmployeeEESB_SB_Li0EEENS_4pairIT0_T2_EESD_T1_SE_, symObjAddr: 0x31E0, symBinAddr: 0x100004164, symSize: 0x12C }
  - { offsetInCU: 0x8124, offset: 0x8124, size: 0x8, addend: 0x0, symName: __ZNSt3__114__unwrap_rangeB7v160006INS_16reverse_iteratorIPP8EmployeeEES5_EENS_4pairIT0_S7_EET_S9_, symObjAddr: 0x330C, symBinAddr: 0x100004290, symSize: 0x84 }
  - { offsetInCU: 0x8278, offset: 0x8278, size: 0x8, addend: 0x0, symName: __ZNSt3__113__unwrap_iterB7v160006INS_16reverse_iteratorIPP8EmployeeEENS_18__unwrap_iter_implIS5_Lb0EEELi0EEEDTclsrT0_8__unwrapclsr3stdE7declvalIT_EEEES9_, symObjAddr: 0x3430, symBinAddr: 0x1000043B4, symSize: 0x44 }
  - { offsetInCU: 0x82BC, offset: 0x82BC, size: 0x8, addend: 0x0, symName: __ZNSt3__19make_pairB7v160006INS_16reverse_iteratorIPP8EmployeeEES5_EENS_4pairINS_18__unwrap_ref_decayIT_E4typeENS7_IT0_E4typeEEEOS8_OSB_, symObjAddr: 0x3474, symBinAddr: 0x1000043F8, symSize: 0x38 }
  - { offsetInCU: 0x830B, offset: 0x830B, size: 0x8, addend: 0x0, symName: __ZNSt3__114__rewrap_rangeB7v160006INS_16reverse_iteratorIPP8EmployeeEES5_EET_S6_T0_, symObjAddr: 0x34AC, symBinAddr: 0x100004430, symSize: 0x5C }
  - { offsetInCU: 0x8357, offset: 0x8357, size: 0x8, addend: 0x0, symName: __ZNSt3__113__rewrap_iterB7v160006INS_16reverse_iteratorIPP8EmployeeEES5_NS_18__unwrap_iter_implIS5_Lb0EEEEET_S8_T0_, symObjAddr: 0x3508, symBinAddr: 0x10000448C, symSize: 0x88 }
  - { offsetInCU: 0x845E, offset: 0x845E, size: 0x8, addend: 0x0, symName: __ZNSt3__119__libcpp_deallocateB7v160006EPvmm, symObjAddr: 0x3930, symBinAddr: 0x1000048B4, symSize: 0x30 }
  - { offsetInCU: 0x84A6, offset: 0x84A6, size: 0x8, addend: 0x0, symName: __ZNSt3__127__do_deallocate_handle_sizeB7v160006IJEEEvPvmDpT_, symObjAddr: 0x3960, symBinAddr: 0x1000048E4, symSize: 0x28 }
  - { offsetInCU: 0x84E4, offset: 0x84E4, size: 0x8, addend: 0x0, symName: __ZNSt3__124__libcpp_operator_deleteB7v160006IJPvEEEvDpT_, symObjAddr: 0x3988, symBinAddr: 0x10000490C, symSize: 0x24 }
  - { offsetInCU: 0x8519, offset: 0x8519, size: 0x8, addend: 0x0, symName: __ZNSt3__118__debug_db_erase_cB7v160006INS_6vectorIP8EmployeeNS_9allocatorIS3_EEEEEEvPT_, symObjAddr: 0x3BE8, symBinAddr: 0x100004B6C, symSize: 0x10 }
  - { offsetInCU: 0x86B5, offset: 0x86B5, size: 0x8, addend: 0x0, symName: __ZNSt3__1lsB7v160006IcNS_11char_traitsIcEENS_9allocatorIcEEEERNS_13basic_ostreamIT_T0_EES9_RKNS_12basic_stringIS6_S7_T1_EE, symObjAddr: 0x40AC, symBinAddr: 0x100005030, symSize: 0x4C }
  - { offsetInCU: 0x8718, offset: 0x8718, size: 0x8, addend: 0x0, symName: __ZNSt3__116__pad_and_outputB7v160006IcNS_11char_traitsIcEEEENS_19ostreambuf_iteratorIT_T0_EES6_PKS4_S8_S8_RNS_8ios_baseES4_, symObjAddr: 0x4510, symBinAddr: 0x100005494, symSize: 0x248 }
  - { offsetInCU: 0x87E7, offset: 0x87E7, size: 0x8, addend: 0x0, symName: __ZNSt3__119__debug_db_insert_cB7v160006INS_12basic_stringIcNS_11char_traitsIcEENS_9allocatorIcEEEEEEvPT_, symObjAddr: 0x4978, symBinAddr: 0x1000058FC, symSize: 0x10 }
  - { offsetInCU: 0x8818, offset: 0x8818, size: 0x8, addend: 0x0, symName: __ZNSt3__19use_facetB7v160006INS_5ctypeIcEEEERKT_RKNS_6localeE, symObjAddr: 0x4B9C, symBinAddr: 0x100005B20, symSize: 0x2C }
  - { offsetInCU: 0x8C14, offset: 0x8C14, size: 0x8, addend: 0x0, symName: __ZNSt3__1miB7v160006IPKP8EmployeeS4_EENS_11__wrap_iterIT_E15difference_typeERKS7_RKNS5_IT0_EE, symObjAddr: 0x4EF4, symBinAddr: 0x100005E78, symSize: 0x48 }
  - { offsetInCU: 0x8C60, offset: 0x8C60, size: 0x8, addend: 0x0, symName: __ZNSt3__14moveB7v160006IPP8EmployeeS3_EET0_T_S5_S4_, symObjAddr: 0x4FF0, symBinAddr: 0x100005F74, symSize: 0x40 }
  - { offsetInCU: 0x8CBA, offset: 0x8CBA, size: 0x8, addend: 0x0, symName: __ZNSt3__16__moveB7v160006INS_17_ClassicAlgPolicyEPP8EmployeeS4_S4_EENS_4pairIT0_T2_EES6_T1_S7_, symObjAddr: 0x5208, symBinAddr: 0x10000618C, symSize: 0x44 }
  - { offsetInCU: 0x8D26, offset: 0x8D26, size: 0x8, addend: 0x0, symName: __ZNSt3__123__dispatch_copy_or_moveB7v160006INS_17_ClassicAlgPolicyENS_11__move_loopIS1_EENS_14__move_trivialEPP8EmployeeS7_S7_EENS_4pairIT2_T4_EES9_T3_SA_, symObjAddr: 0x524C, symBinAddr: 0x1000061D0, symSize: 0x54 }
  - { offsetInCU: 0x8DA4, offset: 0x8DA4, size: 0x8, addend: 0x0, symName: __ZNSt3__121__unwrap_and_dispatchB7v160006INS_10__overloadINS_11__move_loopINS_17_ClassicAlgPolicyEEENS_14__move_trivialEEEPP8EmployeeS9_S9_Li0EEENS_4pairIT0_T2_EESB_T1_SC_, symObjAddr: 0x52A0, symBinAddr: 0x100006224, symSize: 0xB4 }
  - { offsetInCU: 0x8E32, offset: 0x8E32, size: 0x8, addend: 0x0, symName: __ZNSt3__114__unwrap_rangeB7v160006IPP8EmployeeS3_EENS_4pairIT0_S5_EET_S7_, symObjAddr: 0x5354, symBinAddr: 0x1000062D8, symSize: 0x60 }
  - { offsetInCU: 0x8F71, offset: 0x8F71, size: 0x8, addend: 0x0, symName: __ZNSt3__113__unwrap_iterB7v160006IPP8EmployeeNS_18__unwrap_iter_implIS3_Lb1EEELi0EEEDTclsrT0_8__unwrapclsr3stdE7declvalIT_EEEES7_, symObjAddr: 0x53FC, symBinAddr: 0x100006380, symSize: 0x24 }
  - { offsetInCU: 0x8FB5, offset: 0x8FB5, size: 0x8, addend: 0x0, symName: __ZNSt3__19make_pairB7v160006IPP8EmployeeS3_EENS_4pairINS_18__unwrap_ref_decayIT_E4typeENS5_IT0_E4typeEEEOS6_OS9_, symObjAddr: 0x5420, symBinAddr: 0x1000063A4, symSize: 0x38 }
  - { offsetInCU: 0x9004, offset: 0x9004, size: 0x8, addend: 0x0, symName: __ZNSt3__114__rewrap_rangeB7v160006IPP8EmployeeS3_EET_S4_T0_, symObjAddr: 0x5458, symBinAddr: 0x1000063DC, symSize: 0x2C }
  - { offsetInCU: 0x9050, offset: 0x9050, size: 0x8, addend: 0x0, symName: __ZNSt3__113__rewrap_iterB7v160006IPP8EmployeeS3_NS_18__unwrap_iter_implIS3_Lb1EEEEET_S6_T0_, symObjAddr: 0x5484, symBinAddr: 0x100006408, symSize: 0x50 }
  - { offsetInCU: 0x90A5, offset: 0x90A5, size: 0x8, addend: 0x0, symName: __ZNSt3__119__copy_trivial_implB7v160006IP8EmployeeS2_EENS_4pairIPT_PT0_EES5_S5_S7_, symObjAddr: 0x54D4, symBinAddr: 0x100006458, symSize: 0x84 }
  - { offsetInCU: 0x910D, offset: 0x910D, size: 0x8, addend: 0x0, symName: __ZNSt3__19make_pairB7v160006IRPP8EmployeeS3_EENS_4pairINS_18__unwrap_ref_decayIT_E4typeENS6_IT0_E4typeEEEOS7_OSA_, symObjAddr: 0x5558, symBinAddr: 0x1000064DC, symSize: 0x38 }
  - { offsetInCU: 0x91AF, offset: 0x91AF, size: 0x8, addend: 0x0, symName: __ZNSt3__118__constexpr_strlenB7v160006EPKc, symObjAddr: 0x5C20, symBinAddr: 0x100006BA4, symSize: 0x24 }
  - { offsetInCU: 0x91DB, offset: 0x91DB, size: 0x8, addend: 0x0, symName: __ZNSt3__125__debug_db_invalidate_allB7v160006INS_12basic_stringIcNS_11char_traitsIcEENS_9allocatorIcEEEEEEvPT_, symObjAddr: 0x5FAC, symBinAddr: 0x100006F30, symSize: 0x10 }
  - { offsetInCU: 0x962C, offset: 0x962C, size: 0x8, addend: 0x0, symName: __ZSt28__throw_bad_array_new_lengthB7v160006v, symObjAddr: 0x2B28, symBinAddr: 0x100003AAC, symSize: 0x34 }
  - { offsetInCU: 0x9B9E, offset: 0x9B9E, size: 0x8, addend: 0x0, symName: __ZNSt3__16vectorIP8EmployeeNS_9allocatorIS2_EEE26__swap_out_circular_bufferERNS_14__split_bufferIS2_RS4_EE, symObjAddr: 0x235C, symBinAddr: 0x1000032E0, symSize: 0x118 }
  - { offsetInCU: 0xBEE0, offset: 0xBEE0, size: 0x8, addend: 0x0, symName: _main, symObjAddr: 0x0, symBinAddr: 0x100000F84, symSize: 0x4A8 }
  - { offsetInCU: 0xBFA5, offset: 0xBFA5, size: 0x8, addend: 0x0, symName: __ZNSt3__112basic_stringIcNS_11char_traitsIcEENS_9allocatorIcEEEC1B7v160006IDnEEPKc, symObjAddr: 0x4C4, symBinAddr: 0x100001448, symSize: 0x34 }
  - { offsetInCU: 0xC0DF, offset: 0xC0DF, size: 0x8, addend: 0x0, symName: __ZN7PayrollC1ENSt3__112basic_stringIcNS0_11char_traitsIcEENS0_9allocatorIcEEEE, symObjAddr: 0x4F8, symBinAddr: 0x10000147C, symSize: 0x34 }
  - { offsetInCU: 0xC118, offset: 0xC118, size: 0x8, addend: 0x0, symName: __ZNSt3__112basic_stringIcNS_11char_traitsIcEENS_9allocatorIcEEEC1B7v160006Ev, symObjAddr: 0x538, symBinAddr: 0x1000014BC, symSize: 0x2C }
  - { offsetInCU: 0xC142, offset: 0xC142, size: 0x8, addend: 0x0, symName: __ZNSt3__113basic_ostreamIcNS_11char_traitsIcEEElsB7v160006EPFRS3_S4_E, symObjAddr: 0x5AC, symBinAddr: 0x100001530, symSize: 0x2C }
  - { offsetInCU: 0xC176, offset: 0xC176, size: 0x8, addend: 0x0, symName: __ZN7Payroll11addEmployeeENSt3__112basic_stringIcNS0_11char_traitsIcEENS0_9allocatorIcEEEEif, symObjAddr: 0x944, symBinAddr: 0x1000018C8, symSize: 0x104 }
  - { offsetInCU: 0xC1D5, offset: 0xC1D5, size: 0x8, addend: 0x0, symName: __ZN7Payroll14modifyEmployeeEif, symObjAddr: 0xA48, symBinAddr: 0x1000019CC, symSize: 0xDC }
  - { offsetInCU: 0xC234, offset: 0xC234, size: 0x8, addend: 0x0, symName: __ZN7Payroll14deleteEmployeeEi, symObjAddr: 0xB24, symBinAddr: 0x100001AA8, symSize: 0x164 }
  - { offsetInCU: 0xC27C, offset: 0xC27C, size: 0x8, addend: 0x0, symName: __ZN7Payroll15displayEmployeeEi, symObjAddr: 0xC88, symBinAddr: 0x100001C0C, symSize: 0x1D0 }
  - { offsetInCU: 0xC2C4, offset: 0xC2C4, size: 0x8, addend: 0x0, symName: __ZN7Payroll15printSalarySlipEi, symObjAddr: 0xE58, symBinAddr: 0x100001DDC, symSize: 0x1D0 }
  - { offsetInCU: 0xC30C, offset: 0xC30C, size: 0x8, addend: 0x0, symName: __ZN7Payroll16displayEmployeesEv, symObjAddr: 0x1028, symBinAddr: 0x100001FAC, symSize: 0x19C }
  - { offsetInCU: 0xC346, offset: 0xC346, size: 0x8, addend: 0x0, symName: __ZN7PayrollD1Ev, symObjAddr: 0x11C4, symBinAddr: 0x100002148, symSize: 0x2C }
  - { offsetInCU: 0xC372, offset: 0xC372, size: 0x8, addend: 0x0, symName: __ZN7PayrollC2ENSt3__112basic_stringIcNS0_11char_traitsIcEENS0_9allocatorIcEEEE, symObjAddr: 0x11F0, symBinAddr: 0x100002174, symSize: 0xB4 }
  - { offsetInCU: 0xC3AB, offset: 0xC3AB, size: 0x8, addend: 0x0, symName: __ZNSt3__16vectorIP8EmployeeNS_9allocatorIS2_EEEC1B7v160006Ev, symObjAddr: 0x12A4, symBinAddr: 0x100002228, symSize: 0x2C }
  - { offsetInCU: 0xC3D5, offset: 0xC3D5, size: 0x8, addend: 0x0, symName: __ZN7Payroll13loadEmployeesEv, symObjAddr: 0x12D0, symBinAddr: 0x100002254, symSize: 0x278 }
  - { offsetInCU: 0xC453, offset: 0xC453, size: 0x8, addend: 0x0, symName: __ZNSt3__16vectorIP8EmployeeNS_9allocatorIS2_EEED1B7v160006Ev, symObjAddr: 0x1548, symBinAddr: 0x1000024CC, symSize: 0x2C }
  - { offsetInCU: 0xC47D, offset: 0xC47D, size: 0x8, addend: 0x0, symName: __ZNSt3__16vectorIP8EmployeeNS_9allocatorIS2_EEEC2B7v160006Ev, symObjAddr: 0x1574, symBinAddr: 0x1000024F8, symSize: 0x4C }
  - { offsetInCU: 0xC4B1, offset: 0xC4B1, size: 0x8, addend: 0x0, symName: __ZNSt3__117__compressed_pairIPP8EmployeeNS_9allocatorIS2_EEEC1B7v160006IDnNS_18__default_init_tagEEEOT_OT0_, symObjAddr: 0x15C0, symBinAddr: 0x100002544, symSize: 0x3C }
  - { offsetInCU: 0xC509, offset: 0xC509, size: 0x8, addend: 0x0, symName: __ZNSt3__117__compressed_pairIPP8EmployeeNS_9allocatorIS2_EEEC2B7v160006IDnNS_18__default_init_tagEEEOT_OT0_, symObjAddr: 0x160C, symBinAddr: 0x100002590, symSize: 0x40 }
  - { offsetInCU: 0xC561, offset: 0xC561, size: 0x8, addend: 0x0, symName: __ZNSt3__122__compressed_pair_elemIPP8EmployeeLi0ELb0EEC2B7v160006IDnvEEOT_, symObjAddr: 0x164C, symBinAddr: 0x1000025D0, symSize: 0x1C }
  - { offsetInCU: 0xC5A3, offset: 0xC5A3, size: 0x8, addend: 0x0, symName: __ZNSt3__122__compressed_pair_elemINS_9allocatorIP8EmployeeEELi1ELb1EEC2B7v160006ENS_18__default_init_tagE, symObjAddr: 0x1668, symBinAddr: 0x1000025EC, symSize: 0x2C }
  - { offsetInCU: 0xC5D8, offset: 0xC5D8, size: 0x8, addend: 0x0, symName: __ZNSt3__19allocatorIP8EmployeeEC2B7v160006Ev, symObjAddr: 0x1694, symBinAddr: 0x100002618, symSize: 0x2C }
  - { offsetInCU: 0xC602, offset: 0xC602, size: 0x8, addend: 0x0, symName: __ZNSt3__116__non_trivial_ifILb1ENS_9allocatorIP8EmployeeEEEC2B7v160006Ev, symObjAddr: 0x16C0, symBinAddr: 0x100002644, symSize: 0x14 }
  - { offsetInCU: 0xC74F, offset: 0xC74F, size: 0x8, addend: 0x0, symName: __ZNSt3__114basic_ifstreamIcNS_11char_traitsIcEEEC1ERKNS_12basic_stringIcS2_NS_9allocatorIcEEEEj, symObjAddr: 0x16D4, symBinAddr: 0x100002658, symSize: 0x17C }
  - { offsetInCU: 0xC799, offset: 0xC799, size: 0x8, addend: 0x0, symName: __ZNKSt3__114basic_ifstreamIcNS_11char_traitsIcEEE7is_openEv, symObjAddr: 0x1850, symBinAddr: 0x1000027D4, symSize: 0x2C }
  - { offsetInCU: 0xC7C1, offset: 0xC7C1, size: 0x8, addend: 0x0, symName: __ZNKSt3__19basic_iosIcNS_11char_traitsIcEEEcvPvB7v160006Ev, symObjAddr: 0x187C, symBinAddr: 0x100002800, symSize: 0x4C }
  - { offsetInCU: 0xC7E7, offset: 0xC7E7, size: 0x8, addend: 0x0, symName: __ZN8EmployeeC1ENSt3__112basic_stringIcNS0_11char_traitsIcEENS0_9allocatorIcEEEEif, symObjAddr: 0x18C8, symBinAddr: 0x10000284C, symSize: 0x44 }
  - { offsetInCU: 0xC83C, offset: 0xC83C, size: 0x8, addend: 0x0, symName: __ZNSt3__16vectorIP8EmployeeNS_9allocatorIS2_EEE9push_backB7v160006ERKS2_, symObjAddr: 0x190C, symBinAddr: 0x100002890, symSize: 0x6C }
  - { offsetInCU: 0xC873, offset: 0xC873, size: 0x8, addend: 0x0, symName: __ZNSt3__114basic_ifstreamIcNS_11char_traitsIcEEE5closeEv, symObjAddr: 0x1978, symBinAddr: 0x1000028FC, symSize: 0x58 }
  - { offsetInCU: 0xC8A0, offset: 0xC8A0, size: 0x8, addend: 0x0, symName: __ZNSt3__114basic_ifstreamIcNS_11char_traitsIcEEED1Ev, symObjAddr: 0x19D0, symBinAddr: 0x100002954, symSize: 0x70 }
  - { offsetInCU: 0xC8CD, offset: 0xC8CD, size: 0x8, addend: 0x0, symName: __ZNSt3__19basic_iosIcNS_11char_traitsIcEEEC2B7v160006Ev, symObjAddr: 0x1A40, symBinAddr: 0x1000029C4, symSize: 0x44 }
  - { offsetInCU: 0xC8F7, offset: 0xC8F7, size: 0x8, addend: 0x0, symName: __ZNSt3__113basic_istreamIcNS_11char_traitsIcEEEC2B7v160006EPNS_15basic_streambufIcS2_EE, symObjAddr: 0x1A84, symBinAddr: 0x100002A08, symSize: 0x64 }
  - { offsetInCU: 0xC93C, offset: 0xC93C, size: 0x8, addend: 0x0, symName: __ZNSt3__113basic_filebufIcNS_11char_traitsIcEEE4openERKNS_12basic_stringIcS2_NS_9allocatorIcEEEEj, symObjAddr: 0x1AE8, symBinAddr: 0x100002A6C, symSize: 0x44 }
  - { offsetInCU: 0xC980, offset: 0xC980, size: 0x8, addend: 0x0, symName: __ZNSt3__19basic_iosIcNS_11char_traitsIcEEE8setstateB7v160006Ej, symObjAddr: 0x1B2C, symBinAddr: 0x100002AB0, symSize: 0x2C }
  - { offsetInCU: 0xC9B5, offset: 0xC9B5, size: 0x8, addend: 0x0, symName: __ZNSt3__18ios_baseC2B7v160006Ev, symObjAddr: 0x1B58, symBinAddr: 0x100002ADC, symSize: 0x24 }
  - { offsetInCU: 0xC9DF, offset: 0xC9DF, size: 0x8, addend: 0x0, symName: __ZNSt3__19basic_iosIcNS_11char_traitsIcEEE4initB7v160006EPNS_15basic_streambufIcS2_EE, symObjAddr: 0x1B7C, symBinAddr: 0x100002B00, symSize: 0x44 }
  - { offsetInCU: 0xCA16, offset: 0xCA16, size: 0x8, addend: 0x0, symName: __ZNSt3__111char_traitsIcE3eofEv, symObjAddr: 0x1BC0, symBinAddr: 0x100002B44, symSize: 0x8 }
  - { offsetInCU: 0xCA2A, offset: 0xCA2A, size: 0x8, addend: 0x0, symName: __ZNKSt3__112basic_stringIcNS_11char_traitsIcEENS_9allocatorIcEEE5c_strB7v160006Ev, symObjAddr: 0x1BC8, symBinAddr: 0x100002B4C, symSize: 0x24 }
  - { offsetInCU: 0xCA50, offset: 0xCA50, size: 0x8, addend: 0x0, symName: __ZNKSt3__112basic_stringIcNS_11char_traitsIcEENS_9allocatorIcEEE4dataB7v160006Ev, symObjAddr: 0x1BEC, symBinAddr: 0x100002B70, symSize: 0x28 }
  - { offsetInCU: 0xCA76, offset: 0xCA76, size: 0x8, addend: 0x0, symName: __ZNKSt3__112basic_stringIcNS_11char_traitsIcEENS_9allocatorIcEEE13__get_pointerB7v160006Ev, symObjAddr: 0x1C28, symBinAddr: 0x100002BAC, symSize: 0x54 }
  - { offsetInCU: 0xCA9C, offset: 0xCA9C, size: 0x8, addend: 0x0, symName: __ZNKSt3__112basic_stringIcNS_11char_traitsIcEENS_9allocatorIcEEE9__is_longB7v160006Ev, symObjAddr: 0x1C7C, symBinAddr: 0x100002C00, symSize: 0x74 }
  - { offsetInCU: 0xCAC2, offset: 0xCAC2, size: 0x8, addend: 0x0, symName: __ZNKSt3__112basic_stringIcNS_11char_traitsIcEENS_9allocatorIcEEE18__get_long_pointerB7v160006Ev, symObjAddr: 0x1CF0, symBinAddr: 0x100002C74, symSize: 0x28 }
  - { offsetInCU: 0xCAE8, offset: 0xCAE8, size: 0x8, addend: 0x0, symName: __ZNKSt3__112basic_stringIcNS_11char_traitsIcEENS_9allocatorIcEEE19__get_short_pointerB7v160006Ev, symObjAddr: 0x1D18, symBinAddr: 0x100002C9C, symSize: 0x28 }
  - { offsetInCU: 0xCB0E, offset: 0xCB0E, size: 0x8, addend: 0x0, symName: __ZNKSt3__117__compressed_pairINS_12basic_stringIcNS_11char_traitsIcEENS_9allocatorIcEEE5__repES5_E5firstB7v160006Ev, symObjAddr: 0x1D4C, symBinAddr: 0x100002CD0, symSize: 0x24 }
  - { offsetInCU: 0xCB34, offset: 0xCB34, size: 0x8, addend: 0x0, symName: __ZNKSt3__122__compressed_pair_elemINS_12basic_stringIcNS_11char_traitsIcEENS_9allocatorIcEEE5__repELi0ELb0EE5__getB7v160006Ev, symObjAddr: 0x1D70, symBinAddr: 0x100002CF4, symSize: 0x14 }
  - { offsetInCU: 0xCB5A, offset: 0xCB5A, size: 0x8, addend: 0x0, symName: __ZNSt3__114pointer_traitsIPKcE10pointer_toB7v160006ERS1_, symObjAddr: 0x1D84, symBinAddr: 0x100002D08, symSize: 0x14 }
  - { offsetInCU: 0xCB7D, offset: 0xCB7D, size: 0x8, addend: 0x0, symName: __ZNSt3__18ios_base8setstateB7v160006Ej, symObjAddr: 0x1D98, symBinAddr: 0x100002D1C, symSize: 0x34 }
  - { offsetInCU: 0xCBB4, offset: 0xCBB4, size: 0x8, addend: 0x0, symName: __ZNKSt3__113basic_filebufIcNS_11char_traitsIcEEE7is_openEv, symObjAddr: 0x1DCC, symBinAddr: 0x100002D50, symSize: 0x24 }
  - { offsetInCU: 0xCBDC, offset: 0xCBDC, size: 0x8, addend: 0x0, symName: __ZNKSt3__19basic_iosIcNS_11char_traitsIcEEE4failB7v160006Ev, symObjAddr: 0x1DF0, symBinAddr: 0x100002D74, symSize: 0x28 }
  - { offsetInCU: 0xCC02, offset: 0xCC02, size: 0x8, addend: 0x0, symName: __ZNKSt3__18ios_base4failB7v160006Ev, symObjAddr: 0x1E18, symBinAddr: 0x100002D9C, symSize: 0x28 }
  - { offsetInCU: 0xCC2A, offset: 0xCC2A, size: 0x8, addend: 0x0, symName: __ZN8EmployeeC2ENSt3__112basic_stringIcNS0_11char_traitsIcEENS0_9allocatorIcEEEEif, symObjAddr: 0x1E40, symBinAddr: 0x100002DC4, symSize: 0x88 }
  - { offsetInCU: 0xCC7F, offset: 0xCC7F, size: 0x8, addend: 0x0, symName: __ZNSt3__16vectorIP8EmployeeNS_9allocatorIS2_EEE9__end_capB7v160006Ev, symObjAddr: 0x1EC8, symBinAddr: 0x100002E4C, symSize: 0x28 }
  - { offsetInCU: 0xCCA5, offset: 0xCCA5, size: 0x8, addend: 0x0, symName: __ZNSt3__16vectorIP8EmployeeNS_9allocatorIS2_EEE22__construct_one_at_endB7v160006IJRKS2_EEEvDpOT_, symObjAddr: 0x1EF0, symBinAddr: 0x100002E74, symSize: 0x98 }
  - { offsetInCU: 0xCCF4, offset: 0xCCF4, size: 0x8, addend: 0x0, symName: __ZNSt3__16vectorIP8EmployeeNS_9allocatorIS2_EEE21__push_back_slow_pathIRKS2_EEvOT_, symObjAddr: 0x1F88, symBinAddr: 0x100002F0C, symSize: 0xE0 }
  - { offsetInCU: 0xCD52, offset: 0xCD52, size: 0x8, addend: 0x0, symName: __ZNSt3__117__compressed_pairIPP8EmployeeNS_9allocatorIS2_EEE5firstB7v160006Ev, symObjAddr: 0x2068, symBinAddr: 0x100002FEC, symSize: 0x24 }
  - { offsetInCU: 0xCD78, offset: 0xCD78, size: 0x8, addend: 0x0, symName: __ZNSt3__122__compressed_pair_elemIPP8EmployeeLi0ELb0EE5__getB7v160006Ev, symObjAddr: 0x208C, symBinAddr: 0x100003010, symSize: 0x14 }
  - { offsetInCU: 0xCDB7, offset: 0xCDB7, size: 0x8, addend: 0x0, symName: __ZNSt3__16vectorIP8EmployeeNS_9allocatorIS2_EEE21_ConstructTransactionC1B7v160006ERS5_m, symObjAddr: 0x20A0, symBinAddr: 0x100003024, symSize: 0x3C }
  - { offsetInCU: 0xCDFF, offset: 0xCDFF, size: 0x8, addend: 0x0, symName: __ZNSt3__116allocator_traitsINS_9allocatorIP8EmployeeEEE9constructB7v160006IS3_JRKS3_EvEEvRS4_PT_DpOT0_, symObjAddr: 0x20DC, symBinAddr: 0x100003060, symSize: 0x34 }
  - { offsetInCU: 0xCE56, offset: 0xCE56, size: 0x8, addend: 0x0, symName: __ZNSt3__16vectorIP8EmployeeNS_9allocatorIS2_EEE7__allocB7v160006Ev, symObjAddr: 0x2110, symBinAddr: 0x100003094, symSize: 0x28 }
  - { offsetInCU: 0xCE7C, offset: 0xCE7C, size: 0x8, addend: 0x0, symName: __ZNSt3__16vectorIP8EmployeeNS_9allocatorIS2_EEE21_ConstructTransactionD1B7v160006Ev, symObjAddr: 0x214C, symBinAddr: 0x1000030D0, symSize: 0x2C }
  - { offsetInCU: 0xCEA6, offset: 0xCEA6, size: 0x8, addend: 0x0, symName: __ZNSt3__16vectorIP8EmployeeNS_9allocatorIS2_EEE21_ConstructTransactionC2B7v160006ERS5_m, symObjAddr: 0x2178, symBinAddr: 0x1000030FC, symSize: 0x44 }
  - { offsetInCU: 0xCEEE, offset: 0xCEEE, size: 0x8, addend: 0x0, symName: __ZNSt3__19allocatorIP8EmployeeE9constructB7v160006IS2_JRKS2_EEEvPT_DpOT0_, symObjAddr: 0x21BC, symBinAddr: 0x100003140, symSize: 0x28 }
  - { offsetInCU: 0xCF44, offset: 0xCF44, size: 0x8, addend: 0x0, symName: __ZNSt3__117__compressed_pairIPP8EmployeeNS_9allocatorIS2_EEE6secondB7v160006Ev, symObjAddr: 0x21E4, symBinAddr: 0x100003168, symSize: 0x24 }
  - { offsetInCU: 0xCF6A, offset: 0xCF6A, size: 0x8, addend: 0x0, symName: __ZNSt3__122__compressed_pair_elemINS_9allocatorIP8EmployeeEELi1ELb1EE5__getB7v160006Ev, symObjAddr: 0x2208, symBinAddr: 0x10000318C, symSize: 0x14 }
  - { offsetInCU: 0xCF90, offset: 0xCF90, size: 0x8, addend: 0x0, symName: __ZNSt3__16vectorIP8EmployeeNS_9allocatorIS2_EEE21_ConstructTransactionD2B7v160006Ev, symObjAddr: 0x221C, symBinAddr: 0x1000031A0, symSize: 0x20 }
  - { offsetInCU: 0xCFBA, offset: 0xCFBA, size: 0x8, addend: 0x0, symName: __ZNKSt3__16vectorIP8EmployeeNS_9allocatorIS2_EEE11__recommendB7v160006Em, symObjAddr: 0x223C, symBinAddr: 0x1000031C0, symSize: 0xB4 }
  - { offsetInCU: 0xD00F, offset: 0xD00F, size: 0x8, addend: 0x0, symName: __ZNKSt3__16vectorIP8EmployeeNS_9allocatorIS2_EEE4sizeB7v160006Ev, symObjAddr: 0x22F0, symBinAddr: 0x100003274, symSize: 0x28 }
  - { offsetInCU: 0xD035, offset: 0xD035, size: 0x8, addend: 0x0, symName: __ZNSt3__114__split_bufferIP8EmployeeRNS_9allocatorIS2_EEEC1EmmS5_, symObjAddr: 0x2318, symBinAddr: 0x10000329C, symSize: 0x44 }
  - { offsetInCU: 0xD08B, offset: 0xD08B, size: 0x8, addend: 0x0, symName: __ZNSt3__114__split_bufferIP8EmployeeRNS_9allocatorIS2_EEED1Ev, symObjAddr: 0x2474, symBinAddr: 0x1000033F8, symSize: 0x2C }
  - { offsetInCU: 0xD0B7, offset: 0xD0B7, size: 0x8, addend: 0x0, symName: __ZNKSt3__16vectorIP8EmployeeNS_9allocatorIS2_EEE8max_sizeEv, symObjAddr: 0x24A0, symBinAddr: 0x100003424, symSize: 0x74 }
  - { offsetInCU: 0xD0DF, offset: 0xD0DF, size: 0x8, addend: 0x0, symName: __ZNKSt3__16vectorIP8EmployeeNS_9allocatorIS2_EEE20__throw_length_errorB7v160006Ev, symObjAddr: 0x2514, symBinAddr: 0x100003498, symSize: 0x1C }
  - { offsetInCU: 0xD105, offset: 0xD105, size: 0x8, addend: 0x0, symName: __ZNKSt3__16vectorIP8EmployeeNS_9allocatorIS2_EEE8capacityB7v160006Ev, symObjAddr: 0x2530, symBinAddr: 0x1000034B4, symSize: 0x40 }
  - { offsetInCU: 0xD135, offset: 0xD135, size: 0x8, addend: 0x0, symName: __ZNSt3__116allocator_traitsINS_9allocatorIP8EmployeeEEE8max_sizeB7v160006IS4_vEEmRKS4_, symObjAddr: 0x25C8, symBinAddr: 0x10000354C, symSize: 0x24 }
  - { offsetInCU: 0xD163, offset: 0xD163, size: 0x8, addend: 0x0, symName: __ZNKSt3__16vectorIP8EmployeeNS_9allocatorIS2_EEE7__allocB7v160006Ev, symObjAddr: 0x25EC, symBinAddr: 0x100003570, symSize: 0x28 }
  - { offsetInCU: 0xD189, offset: 0xD189, size: 0x8, addend: 0x0, symName: __ZNSt3__114numeric_limitsIlE3maxB7v160006Ev, symObjAddr: 0x2614, symBinAddr: 0x100003598, symSize: 0x14 }
  - { offsetInCU: 0xD1B1, offset: 0xD1B1, size: 0x8, addend: 0x0, symName: __ZNKSt3__16__lessImmEclB7v160006ERKmS3_, symObjAddr: 0x267C, symBinAddr: 0x100003600, symSize: 0x34 }
  - { offsetInCU: 0xD1F3, offset: 0xD1F3, size: 0x8, addend: 0x0, symName: __ZNKSt3__19allocatorIP8EmployeeE8max_sizeB7v160006Ev, symObjAddr: 0x26B0, symBinAddr: 0x100003634, symSize: 0x14 }
  - { offsetInCU: 0xD219, offset: 0xD219, size: 0x8, addend: 0x0, symName: __ZNKSt3__117__compressed_pairIPP8EmployeeNS_9allocatorIS2_EEE6secondB7v160006Ev, symObjAddr: 0x26C4, symBinAddr: 0x100003648, symSize: 0x24 }
  - { offsetInCU: 0xD23F, offset: 0xD23F, size: 0x8, addend: 0x0, symName: __ZNKSt3__122__compressed_pair_elemINS_9allocatorIP8EmployeeEELi1ELb1EE5__getB7v160006Ev, symObjAddr: 0x26E8, symBinAddr: 0x10000366C, symSize: 0x14 }
  - { offsetInCU: 0xD265, offset: 0xD265, size: 0x8, addend: 0x0, symName: __ZNSt3__123__libcpp_numeric_limitsIlLb1EE3maxB7v160006Ev, symObjAddr: 0x26FC, symBinAddr: 0x100003680, symSize: 0x8 }
  - { offsetInCU: 0xD279, offset: 0xD279, size: 0x8, addend: 0x0, symName: __ZNSt12length_errorC1B7v160006EPKc, symObjAddr: 0x2768, symBinAddr: 0x1000036EC, symSize: 0x34 }
  - { offsetInCU: 0xD2B1, offset: 0xD2B1, size: 0x8, addend: 0x0, symName: __ZNSt12length_errorC2B7v160006EPKc, symObjAddr: 0x279C, symBinAddr: 0x100003720, symSize: 0x4C }
  - { offsetInCU: 0xD2E9, offset: 0xD2E9, size: 0x8, addend: 0x0, symName: __ZNKSt3__16vectorIP8EmployeeNS_9allocatorIS2_EEE9__end_capB7v160006Ev, symObjAddr: 0x27E8, symBinAddr: 0x10000376C, symSize: 0x28 }
  - { offsetInCU: 0xD30F, offset: 0xD30F, size: 0x8, addend: 0x0, symName: __ZNKSt3__117__compressed_pairIPP8EmployeeNS_9allocatorIS2_EEE5firstB7v160006Ev, symObjAddr: 0x2810, symBinAddr: 0x100003794, symSize: 0x24 }
  - { offsetInCU: 0xD335, offset: 0xD335, size: 0x8, addend: 0x0, symName: __ZNKSt3__122__compressed_pair_elemIPP8EmployeeLi0ELb0EE5__getB7v160006Ev, symObjAddr: 0x2834, symBinAddr: 0x1000037B8, symSize: 0x14 }
  - { offsetInCU: 0xD35B, offset: 0xD35B, size: 0x8, addend: 0x0, symName: __ZNSt3__114__split_bufferIP8EmployeeRNS_9allocatorIS2_EEEC2EmmS5_, symObjAddr: 0x289C, symBinAddr: 0x100003820, symSize: 0xD4 }
  - { offsetInCU: 0xD3CF, offset: 0xD3CF, size: 0x8, addend: 0x0, symName: __ZNSt3__117__compressed_pairIPP8EmployeeRNS_9allocatorIS2_EEEC1B7v160006IDnS6_EEOT_OT0_, symObjAddr: 0x2970, symBinAddr: 0x1000038F4, symSize: 0x3C }
  - { offsetInCU: 0xD427, offset: 0xD427, size: 0x8, addend: 0x0, symName: __ZNSt3__114__split_bufferIP8EmployeeRNS_9allocatorIS2_EEE7__allocB7v160006Ev, symObjAddr: 0x29EC, symBinAddr: 0x100003970, symSize: 0x28 }
  - { offsetInCU: 0xD44D, offset: 0xD44D, size: 0x8, addend: 0x0, symName: __ZNSt3__114__split_bufferIP8EmployeeRNS_9allocatorIS2_EEE9__end_capB7v160006Ev, symObjAddr: 0x2A14, symBinAddr: 0x100003998, symSize: 0x28 }
  - { offsetInCU: 0xD473, offset: 0xD473, size: 0x8, addend: 0x0, symName: __ZNSt3__117__compressed_pairIPP8EmployeeRNS_9allocatorIS2_EEEC2B7v160006IDnS6_EEOT_OT0_, symObjAddr: 0x2A3C, symBinAddr: 0x1000039C0, symSize: 0x48 }
  - { offsetInCU: 0xD4CB, offset: 0xD4CB, size: 0x8, addend: 0x0, symName: __ZNSt3__122__compressed_pair_elemIRNS_9allocatorIP8EmployeeEELi1ELb0EEC2B7v160006IS5_vEEOT_, symObjAddr: 0x2A84, symBinAddr: 0x100003A08, symSize: 0x20 }
  - { offsetInCU: 0xD50D, offset: 0xD50D, size: 0x8, addend: 0x0, symName: __ZNSt3__19allocatorIP8EmployeeE8allocateB7v160006Em, symObjAddr: 0x2AA4, symBinAddr: 0x100003A28, symSize: 0x84 }
  - { offsetInCU: 0xD541, offset: 0xD541, size: 0x8, addend: 0x0, symName: __ZNSt3__117__compressed_pairIPP8EmployeeRNS_9allocatorIS2_EEE6secondB7v160006Ev, symObjAddr: 0x2BA8, symBinAddr: 0x100003B2C, symSize: 0x28 }
  - { offsetInCU: 0xD567, offset: 0xD567, size: 0x8, addend: 0x0, symName: __ZNSt3__122__compressed_pair_elemIRNS_9allocatorIP8EmployeeEELi1ELb0EE5__getB7v160006Ev, symObjAddr: 0x2BD0, symBinAddr: 0x100003B54, symSize: 0x18 }
  - { offsetInCU: 0xD58D, offset: 0xD58D, size: 0x8, addend: 0x0, symName: __ZNSt3__117__compressed_pairIPP8EmployeeRNS_9allocatorIS2_EEE5firstB7v160006Ev, symObjAddr: 0x2BE8, symBinAddr: 0x100003B6C, symSize: 0x24 }
  - { offsetInCU: 0xD5B3, offset: 0xD5B3, size: 0x8, addend: 0x0, symName: __ZNKSt3__16vectorIP8EmployeeNS_9allocatorIS2_EEE17__annotate_deleteB7v160006Ev, symObjAddr: 0x2C0C, symBinAddr: 0x100003B90, symSize: 0xB8 }
  - { offsetInCU: 0xD5D9, offset: 0xD5D9, size: 0x8, addend: 0x0, symName: __ZNSt3__116reverse_iteratorIPP8EmployeeEC1B7v160006ES3_, symObjAddr: 0x2DAC, symBinAddr: 0x100003D30, symSize: 0x34 }
  - { offsetInCU: 0xD611, offset: 0xD611, size: 0x8, addend: 0x0, symName: __ZNKSt3__116reverse_iteratorIPP8EmployeeE4baseB7v160006Ev, symObjAddr: 0x2DE0, symBinAddr: 0x100003D64, symSize: 0x18 }
  - { offsetInCU: 0xD637, offset: 0xD637, size: 0x8, addend: 0x0, symName: __ZNKSt3__16vectorIP8EmployeeNS_9allocatorIS2_EEE14__annotate_newB7v160006Em, symObjAddr: 0x2E34, symBinAddr: 0x100003DB8, symSize: 0xAC }
  - { offsetInCU: 0xD66C, offset: 0xD66C, size: 0x8, addend: 0x0, symName: __ZNKSt3__16vectorIP8EmployeeNS_9allocatorIS2_EEE31__annotate_contiguous_containerB7v160006EPKvS7_S7_S7_, symObjAddr: 0x2EF0, symBinAddr: 0x100003E74, symSize: 0x20 }
  - { offsetInCU: 0xD6BE, offset: 0xD6BE, size: 0x8, addend: 0x0, symName: __ZNKSt3__16vectorIP8EmployeeNS_9allocatorIS2_EEE4dataB7v160006Ev, symObjAddr: 0x2F10, symBinAddr: 0x100003E94, symSize: 0x28 }
  - { offsetInCU: 0xD6E4, offset: 0xD6E4, size: 0x8, addend: 0x0, symName: __ZNKSt3__116reverse_iteratorIPP8EmployeeEdeB7v160006Ev, symObjAddr: 0x2FD0, symBinAddr: 0x100003F54, symSize: 0x28 }
  - { offsetInCU: 0xD718, offset: 0xD718, size: 0x8, addend: 0x0, symName: __ZNSt3__116reverse_iteratorIPP8EmployeeEppB7v160006Ev, symObjAddr: 0x2FF8, symBinAddr: 0x100003F7C, symSize: 0x20 }
  - { offsetInCU: 0xD743, offset: 0xD743, size: 0x8, addend: 0x0, symName: __ZNSt3__119__to_address_helperINS_16reverse_iteratorIPP8EmployeeEEvE6__callB7v160006ERKS5_, symObjAddr: 0x3090, symBinAddr: 0x100004014, symSize: 0x4C }
  - { offsetInCU: 0xD766, offset: 0xD766, size: 0x8, addend: 0x0, symName: __ZNKSt3__116reverse_iteratorIPP8EmployeeEptB7v160006Ev, symObjAddr: 0x30DC, symBinAddr: 0x100004060, symSize: 0x24 }
  - { offsetInCU: 0xD7AF, offset: 0xD7AF, size: 0x8, addend: 0x0, symName: __ZNKSt3__111__move_loopINS_17_ClassicAlgPolicyEEclB7v160006INS_16reverse_iteratorIPP8EmployeeEES8_S8_EENS_4pairIT_T1_EESA_T0_SB_, symObjAddr: 0x3390, symBinAddr: 0x100004314, symSize: 0xA0 }
  - { offsetInCU: 0xD81F, offset: 0xD81F, size: 0x8, addend: 0x0, symName: __ZNSt3__18_IterOpsINS_17_ClassicAlgPolicyEE11__iter_moveB7v160006IRNS_16reverse_iteratorIPP8EmployeeEEEENS_9enable_ifIXsr12is_referenceIDTdeclsr3stdE7declvalIRT_EEEEE5valueEDTclsr3stdE4movedeclsr3stdE7declvalISC_EEEEE4typeEOSB_, symObjAddr: 0x3590, symBinAddr: 0x100004514, symSize: 0x28 }
  - { offsetInCU: 0xD84B, offset: 0xD84B, size: 0x8, addend: 0x0, symName: __ZNSt3__18_IterOpsINS_17_ClassicAlgPolicyEE25__validate_iter_referenceB7v160006IRNS_16reverse_iteratorIPP8EmployeeEEEEvv, symObjAddr: 0x35B8, symBinAddr: 0x10000453C, symSize: 0x4 }
  - { offsetInCU: 0xD869, offset: 0xD869, size: 0x8, addend: 0x0, symName: __ZNSt3__118__unwrap_iter_implINS_16reverse_iteratorIPP8EmployeeEELb0EE8__unwrapB7v160006ES5_, symObjAddr: 0x35BC, symBinAddr: 0x100004540, symSize: 0x24 }
  - { offsetInCU: 0xD88C, offset: 0xD88C, size: 0x8, addend: 0x0, symName: __ZNSt3__14pairINS_16reverse_iteratorIPP8EmployeeEES5_EC1B7v160006ERKS5_S8_, symObjAddr: 0x35E0, symBinAddr: 0x100004564, symSize: 0x3C }
  - { offsetInCU: 0xD8D2, offset: 0xD8D2, size: 0x8, addend: 0x0, symName: __ZNSt3__14pairINS_16reverse_iteratorIPP8EmployeeEES5_EC2B7v160006ERKS5_S8_, symObjAddr: 0x361C, symBinAddr: 0x1000045A0, symSize: 0x34 }
  - { offsetInCU: 0xD918, offset: 0xD918, size: 0x8, addend: 0x0, symName: __ZNSt3__118__unwrap_iter_implINS_16reverse_iteratorIPP8EmployeeEELb0EE8__rewrapB7v160006ES5_S5_, symObjAddr: 0x3650, symBinAddr: 0x1000045D4, symSize: 0x2C }
  - { offsetInCU: 0xD946, offset: 0xD946, size: 0x8, addend: 0x0, symName: __ZNSt3__116reverse_iteratorIPP8EmployeeEC2B7v160006ES3_, symObjAddr: 0x367C, symBinAddr: 0x100004600, symSize: 0x28 }
  - { offsetInCU: 0xD97E, offset: 0xD97E, size: 0x8, addend: 0x0, symName: __ZNSt3__114__split_bufferIP8EmployeeRNS_9allocatorIS2_EEED2Ev, symObjAddr: 0x36A4, symBinAddr: 0x100004628, symSize: 0x80 }
  - { offsetInCU: 0xD9AA, offset: 0xD9AA, size: 0x8, addend: 0x0, symName: __ZNSt3__114__split_bufferIP8EmployeeRNS_9allocatorIS2_EEE5clearB7v160006Ev, symObjAddr: 0x3724, symBinAddr: 0x1000046A8, symSize: 0x28 }
  - { offsetInCU: 0xD9D0, offset: 0xD9D0, size: 0x8, addend: 0x0, symName: __ZNSt3__116allocator_traitsINS_9allocatorIP8EmployeeEEE10deallocateB7v160006ERS4_PS3_m, symObjAddr: 0x374C, symBinAddr: 0x1000046D0, symSize: 0x34 }
  - { offsetInCU: 0xDA12, offset: 0xDA12, size: 0x8, addend: 0x0, symName: __ZNKSt3__114__split_bufferIP8EmployeeRNS_9allocatorIS2_EEE8capacityB7v160006Ev, symObjAddr: 0x3780, symBinAddr: 0x100004704, symSize: 0x40 }
  - { offsetInCU: 0xDA38, offset: 0xDA38, size: 0x8, addend: 0x0, symName: __ZNSt3__114__split_bufferIP8EmployeeRNS_9allocatorIS2_EEE17__destruct_at_endB7v160006EPS2_, symObjAddr: 0x37C0, symBinAddr: 0x100004744, symSize: 0x2C }
  - { offsetInCU: 0xDA6C, offset: 0xDA6C, size: 0x8, addend: 0x0, symName: __ZNSt3__114__split_bufferIP8EmployeeRNS_9allocatorIS2_EEE17__destruct_at_endB7v160006EPS2_NS_17integral_constantIbLb0EEE, symObjAddr: 0x37EC, symBinAddr: 0x100004770, symSize: 0x94 }
  - { offsetInCU: 0xDAAD, offset: 0xDAAD, size: 0x8, addend: 0x0, symName: __ZNSt3__116allocator_traitsINS_9allocatorIP8EmployeeEEE7destroyB7v160006IS3_vEEvRS4_PT_, symObjAddr: 0x3880, symBinAddr: 0x100004804, symSize: 0x2C }
  - { offsetInCU: 0xDAEA, offset: 0xDAEA, size: 0x8, addend: 0x0, symName: __ZNSt3__19allocatorIP8EmployeeE7destroyB7v160006EPS2_, symObjAddr: 0x38AC, symBinAddr: 0x100004830, symSize: 0x14 }
  - { offsetInCU: 0xDB1E, offset: 0xDB1E, size: 0x8, addend: 0x0, symName: __ZNSt3__19allocatorIP8EmployeeE10deallocateB7v160006EPS2_m, symObjAddr: 0x38C0, symBinAddr: 0x100004844, symSize: 0x70 }
  - { offsetInCU: 0xDB60, offset: 0xDB60, size: 0x8, addend: 0x0, symName: __ZNKSt3__114__split_bufferIP8EmployeeRNS_9allocatorIS2_EEE9__end_capB7v160006Ev, symObjAddr: 0x39AC, symBinAddr: 0x100004930, symSize: 0x28 }
  - { offsetInCU: 0xDB86, offset: 0xDB86, size: 0x8, addend: 0x0, symName: __ZNKSt3__117__compressed_pairIPP8EmployeeRNS_9allocatorIS2_EEE5firstB7v160006Ev, symObjAddr: 0x39D4, symBinAddr: 0x100004958, symSize: 0x24 }
  - { offsetInCU: 0xDBAC, offset: 0xDBAC, size: 0x8, addend: 0x0, symName: __ZNSt3__114basic_ifstreamIcNS_11char_traitsIcEEED2Ev, symObjAddr: 0x39F8, symBinAddr: 0x10000497C, symSize: 0x9C }
  - { offsetInCU: 0xDBE6, offset: 0xDBE6, size: 0x8, addend: 0x0, symName: __ZTv0_n24_NSt3__114basic_ifstreamIcNS_11char_traitsIcEEED1Ev, symObjAddr: 0x3A94, symBinAddr: 0x100004A18, symSize: 0x28 }
  - { offsetInCU: 0xDBFD, offset: 0xDBFD, size: 0x8, addend: 0x0, symName: __ZNSt3__16vectorIP8EmployeeNS_9allocatorIS2_EEED2B7v160006Ev, symObjAddr: 0x3ABC, symBinAddr: 0x100004A40, symSize: 0x3C }
  - { offsetInCU: 0xDC27, offset: 0xDC27, size: 0x8, addend: 0x0, symName: __ZNSt3__16vectorIP8EmployeeNS_9allocatorIS2_EEE16__destroy_vectorC1ERS5_, symObjAddr: 0x3AF8, symBinAddr: 0x100004A7C, symSize: 0x34 }
  - { offsetInCU: 0xDC60, offset: 0xDC60, size: 0x8, addend: 0x0, symName: __ZNSt3__16vectorIP8EmployeeNS_9allocatorIS2_EEE16__destroy_vectorclB7v160006Ev, symObjAddr: 0x3B2C, symBinAddr: 0x100004AB0, symSize: 0x9C }
  - { offsetInCU: 0xDC86, offset: 0xDC86, size: 0x8, addend: 0x0, symName: __ZNSt3__16vectorIP8EmployeeNS_9allocatorIS2_EEE16__destroy_vectorC2ERS5_, symObjAddr: 0x3BC8, symBinAddr: 0x100004B4C, symSize: 0x20 }
  - { offsetInCU: 0xDCBF, offset: 0xDCBF, size: 0x8, addend: 0x0, symName: __ZNSt3__16vectorIP8EmployeeNS_9allocatorIS2_EEE7__clearB7v160006Ev, symObjAddr: 0x3BF8, symBinAddr: 0x100004B7C, symSize: 0x28 }
  - { offsetInCU: 0xDCE5, offset: 0xDCE5, size: 0x8, addend: 0x0, symName: __ZNSt3__16vectorIP8EmployeeNS_9allocatorIS2_EEE22__base_destruct_at_endB7v160006EPS2_, symObjAddr: 0x3C20, symBinAddr: 0x100004BA4, symSize: 0xA0 }
  - { offsetInCU: 0xDD29, offset: 0xDD29, size: 0x8, addend: 0x0, symName: __ZN7Payroll13saveEmployeesEv, symObjAddr: 0x3CC0, symBinAddr: 0x100004C44, symSize: 0x244 }
  - { offsetInCU: 0xDD8D, offset: 0xDD8D, size: 0x8, addend: 0x0, symName: __ZNSt3__114basic_ofstreamIcNS_11char_traitsIcEEEC1ERKNS_12basic_stringIcS2_NS_9allocatorIcEEEEj, symObjAddr: 0x3F04, symBinAddr: 0x100004E88, symSize: 0x17C }
  - { offsetInCU: 0xDDD7, offset: 0xDDD7, size: 0x8, addend: 0x0, symName: __ZNKSt3__114basic_ofstreamIcNS_11char_traitsIcEEE7is_openEv, symObjAddr: 0x4080, symBinAddr: 0x100005004, symSize: 0x2C }
  - { offsetInCU: 0xDDFF, offset: 0xDDFF, size: 0x8, addend: 0x0, symName: __ZNSt3__16vectorIP8EmployeeNS_9allocatorIS2_EEEixB7v160006Em, symObjAddr: 0x40F8, symBinAddr: 0x10000507C, symSize: 0x24 }
  - { offsetInCU: 0xDE36, offset: 0xDE36, size: 0x8, addend: 0x0, symName: __ZN8Employee5getIdEv, symObjAddr: 0x411C, symBinAddr: 0x1000050A0, symSize: 0x18 }
  - { offsetInCU: 0xDE5C, offset: 0xDE5C, size: 0x8, addend: 0x0, symName: __ZN8Employee7getNameEv, symObjAddr: 0x4134, symBinAddr: 0x1000050B8, symSize: 0x38 }
  - { offsetInCU: 0xDE82, offset: 0xDE82, size: 0x8, addend: 0x0, symName: __ZN8Employee9getSalaryEv, symObjAddr: 0x416C, symBinAddr: 0x1000050F0, symSize: 0x18 }
  - { offsetInCU: 0xDEA8, offset: 0xDEA8, size: 0x8, addend: 0x0, symName: __ZNSt3__114basic_ofstreamIcNS_11char_traitsIcEEE5closeEv, symObjAddr: 0x4184, symBinAddr: 0x100005108, symSize: 0x58 }
  - { offsetInCU: 0xDED5, offset: 0xDED5, size: 0x8, addend: 0x0, symName: __ZNSt3__114basic_ofstreamIcNS_11char_traitsIcEEED1Ev, symObjAddr: 0x41DC, symBinAddr: 0x100005160, symSize: 0x70 }
  - { offsetInCU: 0xDF02, offset: 0xDF02, size: 0x8, addend: 0x0, symName: __ZNSt3__113basic_ostreamIcNS_11char_traitsIcEEEC2B7v160006EPNS_15basic_streambufIcS2_EE, symObjAddr: 0x424C, symBinAddr: 0x1000051D0, symSize: 0x60 }
  - { offsetInCU: 0xDF47, offset: 0xDF47, size: 0x8, addend: 0x0, symName: __ZNKSt3__112basic_stringIcNS_11char_traitsIcEENS_9allocatorIcEEE4sizeB7v160006Ev, symObjAddr: 0x44A0, symBinAddr: 0x100005424, symSize: 0x54 }
  - { offsetInCU: 0xDF8B, offset: 0xDF8B, size: 0x8, addend: 0x0, symName: __ZNKSt3__113basic_ostreamIcNS_11char_traitsIcEEE6sentrycvbB7v160006Ev, symObjAddr: 0x44F4, symBinAddr: 0x100005478, symSize: 0x1C }
  - { offsetInCU: 0xDFB1, offset: 0xDFB1, size: 0x8, addend: 0x0, symName: __ZNSt3__119ostreambuf_iteratorIcNS_11char_traitsIcEEEC1B7v160006ERNS_13basic_ostreamIcS2_EE, symObjAddr: 0x4758, symBinAddr: 0x1000056DC, symSize: 0x34 }
  - { offsetInCU: 0xDFE9, offset: 0xDFE9, size: 0x8, addend: 0x0, symName: __ZNKSt3__18ios_base5flagsB7v160006Ev, symObjAddr: 0x478C, symBinAddr: 0x100005710, symSize: 0x18 }
  - { offsetInCU: 0xE011, offset: 0xE011, size: 0x8, addend: 0x0, symName: __ZNKSt3__19basic_iosIcNS_11char_traitsIcEEE4fillB7v160006Ev, symObjAddr: 0x47A4, symBinAddr: 0x100005728, symSize: 0x64 }
  - { offsetInCU: 0xE039, offset: 0xE039, size: 0x8, addend: 0x0, symName: __ZNKSt3__119ostreambuf_iteratorIcNS_11char_traitsIcEEE6failedB7v160006Ev, symObjAddr: 0x4808, symBinAddr: 0x10000578C, symSize: 0x24 }
  - { offsetInCU: 0xE05F, offset: 0xE05F, size: 0x8, addend: 0x0, symName: __ZNKSt3__18ios_base5widthB7v160006Ev, symObjAddr: 0x482C, symBinAddr: 0x1000057B0, symSize: 0x18 }
  - { offsetInCU: 0xE087, offset: 0xE087, size: 0x8, addend: 0x0, symName: __ZNSt3__115basic_streambufIcNS_11char_traitsIcEEE5sputnB7v160006EPKcl, symObjAddr: 0x4844, symBinAddr: 0x1000057C8, symSize: 0x3C }
  - { offsetInCU: 0xE0C9, offset: 0xE0C9, size: 0x8, addend: 0x0, symName: __ZNSt3__112basic_stringIcNS_11char_traitsIcEENS_9allocatorIcEEEC1B7v160006Emc, symObjAddr: 0x4880, symBinAddr: 0x100005804, symSize: 0x3C }
  - { offsetInCU: 0xE111, offset: 0xE111, size: 0x8, addend: 0x0, symName: __ZNSt3__18ios_base5widthB7v160006El, symObjAddr: 0x48BC, symBinAddr: 0x100005840, symSize: 0x2C }
  - { offsetInCU: 0xE157, offset: 0xE157, size: 0x8, addend: 0x0, symName: __ZNSt3__112basic_stringIcNS_11char_traitsIcEENS_9allocatorIcEEEC2B7v160006Emc, symObjAddr: 0x48E8, symBinAddr: 0x10000586C, symSize: 0x54 }
  - { offsetInCU: 0xE19F, offset: 0xE19F, size: 0x8, addend: 0x0, symName: __ZNSt3__117__compressed_pairINS_12basic_stringIcNS_11char_traitsIcEENS_9allocatorIcEEE5__repES5_EC1B7v160006INS_18__default_init_tagESA_EEOT_OT0_, symObjAddr: 0x493C, symBinAddr: 0x1000058C0, symSize: 0x3C }
  - { offsetInCU: 0xE1F7, offset: 0xE1F7, size: 0x8, addend: 0x0, symName: __ZNSt3__117__compressed_pairINS_12basic_stringIcNS_11char_traitsIcEENS_9allocatorIcEEE5__repES5_EC2B7v160006INS_18__default_init_tagESA_EEOT_OT0_, symObjAddr: 0x4988, symBinAddr: 0x10000590C, symSize: 0x3C }
  - { offsetInCU: 0xE24F, offset: 0xE24F, size: 0x8, addend: 0x0, symName: __ZNSt3__122__compressed_pair_elemINS_12basic_stringIcNS_11char_traitsIcEENS_9allocatorIcEEE5__repELi0ELb0EEC2B7v160006ENS_18__default_init_tagE, symObjAddr: 0x49C4, symBinAddr: 0x100005948, symSize: 0x14 }
  - { offsetInCU: 0xE284, offset: 0xE284, size: 0x8, addend: 0x0, symName: __ZNSt3__122__compressed_pair_elemINS_9allocatorIcEELi1ELb1EEC2B7v160006ENS_18__default_init_tagE, symObjAddr: 0x49D8, symBinAddr: 0x10000595C, symSize: 0x2C }
  - { offsetInCU: 0xE2B9, offset: 0xE2B9, size: 0x8, addend: 0x0, symName: __ZNSt3__19allocatorIcEC2B7v160006Ev, symObjAddr: 0x4A04, symBinAddr: 0x100005988, symSize: 0x2C }
  - { offsetInCU: 0xE2E3, offset: 0xE2E3, size: 0x8, addend: 0x0, symName: __ZNSt3__116__non_trivial_ifILb1ENS_9allocatorIcEEEC2B7v160006Ev, symObjAddr: 0x4A30, symBinAddr: 0x1000059B4, symSize: 0x14 }
  - { offsetInCU: 0xE30D, offset: 0xE30D, size: 0x8, addend: 0x0, symName: __ZNSt3__119ostreambuf_iteratorIcNS_11char_traitsIcEEEC2B7v160006ERNS_13basic_ostreamIcS2_EE, symObjAddr: 0x4A44, symBinAddr: 0x1000059C8, symSize: 0x68 }
  - { offsetInCU: 0xE345, offset: 0xE345, size: 0x8, addend: 0x0, symName: __ZNKSt3__19basic_iosIcNS_11char_traitsIcEEE5rdbufB7v160006Ev, symObjAddr: 0x4AAC, symBinAddr: 0x100005A30, symSize: 0x24 }
  - { offsetInCU: 0xE36D, offset: 0xE36D, size: 0x8, addend: 0x0, symName: __ZNKSt3__18ios_base5rdbufB7v160006Ev, symObjAddr: 0x4AD0, symBinAddr: 0x100005A54, symSize: 0x18 }
  - { offsetInCU: 0xE393, offset: 0xE393, size: 0x8, addend: 0x0, symName: __ZNSt3__111char_traitsIcE11eq_int_typeEii, symObjAddr: 0x4AE8, symBinAddr: 0x100005A6C, symSize: 0x28 }
  - { offsetInCU: 0xE3C4, offset: 0xE3C4, size: 0x8, addend: 0x0, symName: __ZNKSt3__19basic_iosIcNS_11char_traitsIcEEE5widenB7v160006Ec, symObjAddr: 0x4B10, symBinAddr: 0x100005A94, symSize: 0x8C }
  - { offsetInCU: 0xE428, offset: 0xE428, size: 0x8, addend: 0x0, symName: __ZNKSt3__15ctypeIcE5widenB7v160006Ec, symObjAddr: 0x4BC8, symBinAddr: 0x100005B4C, symSize: 0x38 }
  - { offsetInCU: 0xE45D, offset: 0xE45D, size: 0x8, addend: 0x0, symName: __ZNKSt3__112basic_stringIcNS_11char_traitsIcEENS_9allocatorIcEEE15__get_long_sizeB7v160006Ev, symObjAddr: 0x4C00, symBinAddr: 0x100005B84, symSize: 0x28 }
  - { offsetInCU: 0xE483, offset: 0xE483, size: 0x8, addend: 0x0, symName: __ZNKSt3__112basic_stringIcNS_11char_traitsIcEENS_9allocatorIcEEE16__get_short_sizeB7v160006Ev, symObjAddr: 0x4C28, symBinAddr: 0x100005BAC, symSize: 0x34 }
  - { offsetInCU: 0xE4A9, offset: 0xE4A9, size: 0x8, addend: 0x0, symName: __ZNSt3__114basic_ofstreamIcNS_11char_traitsIcEEED2Ev, symObjAddr: 0x4C5C, symBinAddr: 0x100005BE0, symSize: 0x9C }
  - { offsetInCU: 0xE4E3, offset: 0xE4E3, size: 0x8, addend: 0x0, symName: __ZTv0_n24_NSt3__114basic_ofstreamIcNS_11char_traitsIcEEED1Ev, symObjAddr: 0x4CF8, symBinAddr: 0x100005C7C, symSize: 0x28 }
  - { offsetInCU: 0xE4FA, offset: 0xE4FA, size: 0x8, addend: 0x0, symName: __ZN8Employee9setSalaryEf, symObjAddr: 0x4D20, symBinAddr: 0x100005CA4, symSize: 0x20 }
  - { offsetInCU: 0xE52E, offset: 0xE52E, size: 0x8, addend: 0x0, symName: __ZN8EmployeeD1Ev, symObjAddr: 0x4D40, symBinAddr: 0x100005CC4, symSize: 0x2C }
  - { offsetInCU: 0xE55A, offset: 0xE55A, size: 0x8, addend: 0x0, symName: __ZNSt3__16vectorIP8EmployeeNS_9allocatorIS2_EEE5eraseB7v160006ENS_11__wrap_iterIPKS2_EE, symObjAddr: 0x4D6C, symBinAddr: 0x100005CF0, symSize: 0xB4 }
  - { offsetInCU: 0xE5AF, offset: 0xE5AF, size: 0x8, addend: 0x0, symName: __ZNSt3__16vectorIP8EmployeeNS_9allocatorIS2_EEE5beginB7v160006Ev, symObjAddr: 0x4E20, symBinAddr: 0x100005DA4, symSize: 0x30 }
  - { offsetInCU: 0xE5D7, offset: 0xE5D7, size: 0x8, addend: 0x0, symName: __ZNKSt3__111__wrap_iterIPP8EmployeeEplB7v160006El, symObjAddr: 0x4E50, symBinAddr: 0x100005DD4, symSize: 0x3C }
  - { offsetInCU: 0xE623, offset: 0xE623, size: 0x8, addend: 0x0, symName: __ZNSt3__111__wrap_iterIPKP8EmployeeEC1B7v160006IPS2_EERKNS0_IT_EEPNS_9enable_ifIXsr14is_convertibleIS8_S4_EE5valueEvE4typeE, symObjAddr: 0x4E8C, symBinAddr: 0x100005E10, symSize: 0x3C }
  - { offsetInCU: 0xE66F, offset: 0xE66F, size: 0x8, addend: 0x0, symName: __ZN8EmployeeD2Ev, symObjAddr: 0x4EC8, symBinAddr: 0x100005E4C, symSize: 0x2C }
  - { offsetInCU: 0xE69B, offset: 0xE69B, size: 0x8, addend: 0x0, symName: __ZNKSt3__16vectorIP8EmployeeNS_9allocatorIS2_EEE6cbeginB7v160006Ev, symObjAddr: 0x4F3C, symBinAddr: 0x100005EC0, symSize: 0x2C }
  - { offsetInCU: 0xE6C1, offset: 0xE6C1, size: 0x8, addend: 0x0, symName: __ZNSt3__16vectorIP8EmployeeNS_9allocatorIS2_EEE17__destruct_at_endB7v160006EPS2_, symObjAddr: 0x4F68, symBinAddr: 0x100005EEC, symSize: 0x88 }
  - { offsetInCU: 0xE705, offset: 0xE705, size: 0x8, addend: 0x0, symName: __ZNSt3__16vectorIP8EmployeeNS_9allocatorIS2_EEE27__invalidate_iterators_pastB7v160006EPS2_, symObjAddr: 0x5030, symBinAddr: 0x100005FB4, symSize: 0x14 }
  - { offsetInCU: 0xE73C, offset: 0xE73C, size: 0x8, addend: 0x0, symName: __ZNSt3__16vectorIP8EmployeeNS_9allocatorIS2_EEE11__make_iterB7v160006EPS2_, symObjAddr: 0x5044, symBinAddr: 0x100005FC8, symSize: 0x34 }
  - { offsetInCU: 0xE771, offset: 0xE771, size: 0x8, addend: 0x0, symName: __ZNKSt3__111__wrap_iterIPKP8EmployeeE4baseB7v160006Ev, symObjAddr: 0x5078, symBinAddr: 0x100005FFC, symSize: 0x18 }
  - { offsetInCU: 0xE797, offset: 0xE797, size: 0x8, addend: 0x0, symName: __ZNKSt3__16vectorIP8EmployeeNS_9allocatorIS2_EEE5beginB7v160006Ev, symObjAddr: 0x5090, symBinAddr: 0x100006014, symSize: 0x30 }
  - { offsetInCU: 0xE7BF, offset: 0xE7BF, size: 0x8, addend: 0x0, symName: __ZNKSt3__16vectorIP8EmployeeNS_9allocatorIS2_EEE11__make_iterB7v160006EPKS2_, symObjAddr: 0x50C0, symBinAddr: 0x100006044, symSize: 0x34 }
  - { offsetInCU: 0xE7F4, offset: 0xE7F4, size: 0x8, addend: 0x0, symName: __ZNSt3__111__wrap_iterIPKP8EmployeeEC1B7v160006EPKvS4_, symObjAddr: 0x50F4, symBinAddr: 0x100006078, symSize: 0x3C }
  - { offsetInCU: 0xE83A, offset: 0xE83A, size: 0x8, addend: 0x0, symName: __ZNSt3__111__wrap_iterIPKP8EmployeeEC2B7v160006EPKvS4_, symObjAddr: 0x5130, symBinAddr: 0x1000060B4, symSize: 0x24 }
  - { offsetInCU: 0xE880, offset: 0xE880, size: 0x8, addend: 0x0, symName: __ZNKSt3__16vectorIP8EmployeeNS_9allocatorIS2_EEE17__annotate_shrinkB7v160006Em, symObjAddr: 0x5154, symBinAddr: 0x1000060D8, symSize: 0xB4 }
  - { offsetInCU: 0xE8D8, offset: 0xE8D8, size: 0x8, addend: 0x0, symName: __ZNKSt3__114__move_trivialclB7v160006IP8EmployeeS3_Li0EEENS_4pairIPT_PT0_EES6_S6_S8_, symObjAddr: 0x53B4, symBinAddr: 0x100006338, symSize: 0x48 }
  - { offsetInCU: 0xE940, offset: 0xE940, size: 0x8, addend: 0x0, symName: __ZNSt3__14pairIPP8EmployeeS3_EC1B7v160006ERKS3_S6_, symObjAddr: 0x5590, symBinAddr: 0x100006514, symSize: 0x3C }
  - { offsetInCU: 0xE986, offset: 0xE986, size: 0x8, addend: 0x0, symName: __ZNSt3__14pairIPP8EmployeeS3_EC2B7v160006ERKS3_S6_, symObjAddr: 0x55CC, symBinAddr: 0x100006550, symSize: 0x34 }
  - { offsetInCU: 0xE9CC, offset: 0xE9CC, size: 0x8, addend: 0x0, symName: __ZNSt3__118__unwrap_iter_implIPP8EmployeeLb1EE8__unwrapB7v160006ES3_, symObjAddr: 0x5600, symBinAddr: 0x100006584, symSize: 0x24 }
  - { offsetInCU: 0xE9EF, offset: 0xE9EF, size: 0x8, addend: 0x0, symName: __ZNSt3__118__unwrap_iter_implIPP8EmployeeLb1EE8__rewrapB7v160006ES3_S3_, symObjAddr: 0x5624, symBinAddr: 0x1000065A8, symSize: 0x50 }
  - { offsetInCU: 0xEA20, offset: 0xEA20, size: 0x8, addend: 0x0, symName: __ZNSt3__111__wrap_iterIPP8EmployeeEC1B7v160006EPKvS3_, symObjAddr: 0x5674, symBinAddr: 0x1000065F8, symSize: 0x3C }
  - { offsetInCU: 0xEA66, offset: 0xEA66, size: 0x8, addend: 0x0, symName: __ZNSt3__111__wrap_iterIPP8EmployeeEC2B7v160006EPKvS3_, symObjAddr: 0x56B0, symBinAddr: 0x100006634, symSize: 0x24 }
  - { offsetInCU: 0xEAAC, offset: 0xEAAC, size: 0x8, addend: 0x0, symName: __ZNSt3__111__wrap_iterIPP8EmployeeEpLB7v160006El, symObjAddr: 0x56D4, symBinAddr: 0x100006658, symSize: 0x28 }
  - { offsetInCU: 0xEAE0, offset: 0xEAE0, size: 0x8, addend: 0x0, symName: __ZNSt3__111__wrap_iterIPKP8EmployeeEC2B7v160006IPS2_EERKNS0_IT_EEPNS_9enable_ifIXsr14is_convertibleIS8_S4_EE5valueEvE4typeE, symObjAddr: 0x56FC, symBinAddr: 0x100006680, symSize: 0x40 }
  - { offsetInCU: 0xEB2C, offset: 0xEB2C, size: 0x8, addend: 0x0, symName: __ZNKSt3__111__wrap_iterIPP8EmployeeE4baseB7v160006Ev, symObjAddr: 0x573C, symBinAddr: 0x1000066C0, symSize: 0x18 }
  - { offsetInCU: 0xEB52, offset: 0xEB52, size: 0x8, addend: 0x0, symName: __ZN7PayrollD2Ev, symObjAddr: 0x5754, symBinAddr: 0x1000066D8, symSize: 0x68 }
  - { offsetInCU: 0xEB7E, offset: 0xEB7E, size: 0x8, addend: 0x0, symName: __ZNSt3__112basic_stringIcNS_11char_traitsIcEENS_9allocatorIcEEEC2B7v160006Ev, symObjAddr: 0x57BC, symBinAddr: 0x100006740, symSize: 0x44 }
  - { offsetInCU: 0xEBA8, offset: 0xEBA8, size: 0x8, addend: 0x0, symName: __ZNSt3__112basic_stringIcNS_11char_traitsIcEENS_9allocatorIcEEE14__default_initB7v160006Ev, symObjAddr: 0x5800, symBinAddr: 0x100006784, symSize: 0xB0 }
  - { offsetInCU: 0xEBFB, offset: 0xEBFB, size: 0x8, addend: 0x0, symName: __ZNSt3__117__compressed_pairINS_12basic_stringIcNS_11char_traitsIcEENS_9allocatorIcEEE5__repES5_E5firstB7v160006Ev, symObjAddr: 0x58B0, symBinAddr: 0x100006834, symSize: 0x24 }
  - { offsetInCU: 0xEC21, offset: 0xEC21, size: 0x8, addend: 0x0, symName: __ZNSt3__112basic_stringIcNS_11char_traitsIcEENS_9allocatorIcEEE11__recommendB7v160006Em, symObjAddr: 0x58D4, symBinAddr: 0x100006858, symSize: 0x9C }
  - { offsetInCU: 0xEC54, offset: 0xEC54, size: 0x8, addend: 0x0, symName: __ZNSt3__116allocator_traitsINS_9allocatorIcEEE8allocateB7v160006ERS2_m, symObjAddr: 0x5970, symBinAddr: 0x1000068F4, symSize: 0x2C }
  - { offsetInCU: 0xEC87, offset: 0xEC87, size: 0x8, addend: 0x0, symName: __ZNSt3__112basic_stringIcNS_11char_traitsIcEENS_9allocatorIcEEE7__allocB7v160006Ev, symObjAddr: 0x599C, symBinAddr: 0x100006920, symSize: 0x24 }
  - { offsetInCU: 0xECAD, offset: 0xECAD, size: 0x8, addend: 0x0, symName: __ZNSt3__112basic_stringIcNS_11char_traitsIcEENS_9allocatorIcEEE16__begin_lifetimeB7v160006EPcm, symObjAddr: 0x59C0, symBinAddr: 0x100006944, symSize: 0x14 }
  - { offsetInCU: 0xECE0, offset: 0xECE0, size: 0x8, addend: 0x0, symName: __ZNSt3__112basic_stringIcNS_11char_traitsIcEENS_9allocatorIcEEE18__set_long_pointerB7v160006EPc, symObjAddr: 0x59D4, symBinAddr: 0x100006958, symSize: 0x38 }
  - { offsetInCU: 0xED15, offset: 0xED15, size: 0x8, addend: 0x0, symName: __ZNSt3__112basic_stringIcNS_11char_traitsIcEENS_9allocatorIcEEE14__set_long_capB7v160006Em, symObjAddr: 0x5A0C, symBinAddr: 0x100006990, symSize: 0x70 }
  - { offsetInCU: 0xED4A, offset: 0xED4A, size: 0x8, addend: 0x0, symName: __ZNSt3__112basic_stringIcNS_11char_traitsIcEENS_9allocatorIcEEE15__set_long_sizeB7v160006Em, symObjAddr: 0x5A7C, symBinAddr: 0x100006A00, symSize: 0x38 }
  - { offsetInCU: 0xED7F, offset: 0xED7F, size: 0x8, addend: 0x0, symName: __ZNSt3__122__compressed_pair_elemINS_12basic_stringIcNS_11char_traitsIcEENS_9allocatorIcEEE5__repELi0ELb0EE5__getB7v160006Ev, symObjAddr: 0x5AB4, symBinAddr: 0x100006A38, symSize: 0x14 }
  - { offsetInCU: 0xEDA5, offset: 0xEDA5, size: 0x8, addend: 0x0, symName: __ZNSt3__112basic_stringIcNS_11char_traitsIcEENS_9allocatorIcEEE10__align_itB7v160006ILm16EEEmm, symObjAddr: 0x5AC8, symBinAddr: 0x100006A4C, symSize: 0x1C }
  - { offsetInCU: 0xEDD3, offset: 0xEDD3, size: 0x8, addend: 0x0, symName: __ZNSt3__19allocatorIcE8allocateB7v160006Em, symObjAddr: 0x5AE4, symBinAddr: 0x100006A68, symSize: 0x84 }
  - { offsetInCU: 0xEE11, offset: 0xEE11, size: 0x8, addend: 0x0, symName: __ZNSt3__116allocator_traitsINS_9allocatorIcEEE8max_sizeB7v160006IS2_vEEmRKS2_, symObjAddr: 0x5B68, symBinAddr: 0x100006AEC, symSize: 0x24 }
  - { offsetInCU: 0xEE3F, offset: 0xEE3F, size: 0x8, addend: 0x0, symName: __ZNKSt3__19allocatorIcE8max_sizeB7v160006Ev, symObjAddr: 0x5B8C, symBinAddr: 0x100006B10, symSize: 0x14 }
  - { offsetInCU: 0xEE65, offset: 0xEE65, size: 0x8, addend: 0x0, symName: __ZNSt3__117__compressed_pairINS_12basic_stringIcNS_11char_traitsIcEENS_9allocatorIcEEE5__repES5_E6secondB7v160006Ev, symObjAddr: 0x5BA0, symBinAddr: 0x100006B24, symSize: 0x24 }
  - { offsetInCU: 0xEE8B, offset: 0xEE8B, size: 0x8, addend: 0x0, symName: __ZNSt3__122__compressed_pair_elemINS_9allocatorIcEELi1ELb1EE5__getB7v160006Ev, symObjAddr: 0x5BC4, symBinAddr: 0x100006B48, symSize: 0x14 }
  - { offsetInCU: 0xEEB1, offset: 0xEEB1, size: 0x8, addend: 0x0, symName: __ZNSt3__111char_traitsIcE6lengthEPKc, symObjAddr: 0x5BD8, symBinAddr: 0x100006B5C, symSize: 0x48 }
  - { offsetInCU: 0xEEF2, offset: 0xEEF2, size: 0x8, addend: 0x0, symName: __ZNKSt3__113basic_istreamIcNS_11char_traitsIcEEE6sentrycvbB7v160006Ev, symObjAddr: 0x5C44, symBinAddr: 0x100006BC8, symSize: 0x1C }
  - { offsetInCU: 0xEF18, offset: 0xEF18, size: 0x8, addend: 0x0, symName: __ZNSt3__112basic_stringIcNS_11char_traitsIcEENS_9allocatorIcEEE5clearB7v160006Ev, symObjAddr: 0x5C60, symBinAddr: 0x100006BE4, symSize: 0x9C }
  - { offsetInCU: 0xEF40, offset: 0xEF40, size: 0x8, addend: 0x0, symName: __ZNKSt3__112basic_stringIcNS_11char_traitsIcEENS_9allocatorIcEEE8max_sizeB7v160006Ev, symObjAddr: 0x5CFC, symBinAddr: 0x100006C80, symSize: 0xAC }
  - { offsetInCU: 0xEF93, offset: 0xEF93, size: 0x8, addend: 0x0, symName: __ZNSt3__115basic_streambufIcNS_11char_traitsIcEEE5sgetcB7v160006Ev, symObjAddr: 0x5DA8, symBinAddr: 0x100006D2C, symSize: 0x70 }
  - { offsetInCU: 0xEFB9, offset: 0xEFB9, size: 0x8, addend: 0x0, symName: __ZNSt3__111char_traitsIcE12to_char_typeEi, symObjAddr: 0x5E18, symBinAddr: 0x100006D9C, symSize: 0x18 }
  - { offsetInCU: 0xEFDC, offset: 0xEFDC, size: 0x8, addend: 0x0, symName: __ZNKSt3__15ctypeIcE2isB7v160006Ejc, symObjAddr: 0x5E30, symBinAddr: 0x100006DB4, symSize: 0x7C }
  - { offsetInCU: 0xF020, offset: 0xF020, size: 0x8, addend: 0x0, symName: __ZNSt3__115basic_streambufIcNS_11char_traitsIcEEE6sbumpcB7v160006Ev, symObjAddr: 0x5EAC, symBinAddr: 0x100006E30, symSize: 0x78 }
  - { offsetInCU: 0xF046, offset: 0xF046, size: 0x8, addend: 0x0, symName: __ZNSt3__18ios_base18__setstate_nothrowB7v160006Ej, symObjAddr: 0x5F24, symBinAddr: 0x100006EA8, symSize: 0x64 }
  - { offsetInCU: 0xF07B, offset: 0xF07B, size: 0x8, addend: 0x0, symName: __ZNKSt3__19basic_iosIcNS_11char_traitsIcEEE10exceptionsB7v160006Ev, symObjAddr: 0x5F88, symBinAddr: 0x100006F0C, symSize: 0x24 }
  - { offsetInCU: 0xF0A1, offset: 0xF0A1, size: 0x8, addend: 0x0, symName: __ZNSt3__111char_traitsIcE6assignERcRKc, symObjAddr: 0x5FBC, symBinAddr: 0x100006F40, symSize: 0x24 }
  - { offsetInCU: 0xF0D2, offset: 0xF0D2, size: 0x8, addend: 0x0, symName: __ZNSt3__112basic_stringIcNS_11char_traitsIcEENS_9allocatorIcEEE18__get_long_pointerB7v160006Ev, symObjAddr: 0x5FE0, symBinAddr: 0x100006F64, symSize: 0x28 }
  - { offsetInCU: 0xF0F8, offset: 0xF0F8, size: 0x8, addend: 0x0, symName: __ZNSt3__112basic_stringIcNS_11char_traitsIcEENS_9allocatorIcEEE19__get_short_pointerB7v160006Ev, symObjAddr: 0x6008, symBinAddr: 0x100006F8C, symSize: 0x28 }
  - { offsetInCU: 0xF11E, offset: 0xF11E, size: 0x8, addend: 0x0, symName: __ZNSt3__112basic_stringIcNS_11char_traitsIcEENS_9allocatorIcEEE16__set_short_sizeB7v160006Em, symObjAddr: 0x6030, symBinAddr: 0x100006FB4, symSize: 0x78 }
  - { offsetInCU: 0xF153, offset: 0xF153, size: 0x8, addend: 0x0, symName: __ZNSt3__114pointer_traitsIPcE10pointer_toB7v160006ERc, symObjAddr: 0x60A8, symBinAddr: 0x10000702C, symSize: 0x14 }
  - { offsetInCU: 0xF176, offset: 0xF176, size: 0x8, addend: 0x0, symName: __ZNKSt3__112basic_stringIcNS_11char_traitsIcEENS_9allocatorIcEEE7__allocB7v160006Ev, symObjAddr: 0x60BC, symBinAddr: 0x100007040, symSize: 0x24 }
  - { offsetInCU: 0xF19C, offset: 0xF19C, size: 0x8, addend: 0x0, symName: __ZNSt3__114numeric_limitsImE3maxB7v160006Ev, symObjAddr: 0x60E0, symBinAddr: 0x100007064, symSize: 0x14 }
  - { offsetInCU: 0xF1B0, offset: 0xF1B0, size: 0x8, addend: 0x0, symName: __ZNKSt3__117__compressed_pairINS_12basic_stringIcNS_11char_traitsIcEENS_9allocatorIcEEE5__repES5_E6secondB7v160006Ev, symObjAddr: 0x60F4, symBinAddr: 0x100007078, symSize: 0x24 }
  - { offsetInCU: 0xF1D6, offset: 0xF1D6, size: 0x8, addend: 0x0, symName: __ZNKSt3__122__compressed_pair_elemINS_9allocatorIcEELi1ELb1EE5__getB7v160006Ev, symObjAddr: 0x6118, symBinAddr: 0x10000709C, symSize: 0x14 }
  - { offsetInCU: 0xF1FC, offset: 0xF1FC, size: 0x8, addend: 0x0, symName: __ZNSt3__123__libcpp_numeric_limitsImLb1EE3maxB7v160006Ev, symObjAddr: 0x612C, symBinAddr: 0x1000070B0, symSize: 0x8 }
  - { offsetInCU: 0xF210, offset: 0xF210, size: 0x8, addend: 0x0, symName: __ZNSt3__111char_traitsIcE11to_int_typeEc, symObjAddr: 0x6134, symBinAddr: 0x1000070B8, symSize: 0x14 }
  - { offsetInCU: 0xF232, offset: 0xF232, size: 0x8, addend: 0x0, symName: __Z7isasciii, symObjAddr: 0x6148, symBinAddr: 0x1000070CC, symSize: 0x24 }
  - { offsetInCU: 0xF25F, offset: 0xF25F, size: 0x8, addend: 0x0, symName: __ZNKSt3__18ios_base10exceptionsB7v160006Ev, symObjAddr: 0x616C, symBinAddr: 0x1000070F0, symSize: 0x18 }
  - { offsetInCU: 0xF287, offset: 0xF287, size: 0x8, addend: 0x0, symName: __ZNSt3__112basic_stringIcNS_11char_traitsIcEENS_9allocatorIcEEEC2B7v160006IDnEEPKc, symObjAddr: 0x6184, symBinAddr: 0x100007108, symSize: 0x60 }
...
